(lp0
S'./datasets/YourMusicLibrary/wave/v2sound11.wav'
p1
aS'./datasets/YourMusicLibrary/wave/v3sound1.wav'
p2
aS'./datasets/YourMusicLibrary/wave/v1sound8.wav'
p3
aS'./datasets/YourMusicLibrary/wave/v1sound2.wav'
p4
aS'./datasets/YourMusicLibrary/wave/v2sound12.wav'
p5
aS'./datasets/YourMusicLibrary/wave/v2sound10.wav'
p6
aS'./datasets/YourMusicLibrary/wave/v1sound10.wav'
p7
aS'./datasets/YourMusicLibrary/wave/v3sound7.wav'
p8
aS'./datasets/YourMusicLibrary/wave/v2sound4.wav'
p9
aS'./datasets/YourMusicLibrary/wave/v3sound9.wav'
p10
aS'./datasets/YourMusicLibrary/wave/v2sound19.wav'
p11
aS'./datasets/YourMusicLibrary/wave/v2sound7.wav'
p12
aS'./datasets/YourMusicLibrary/wave/v2sound14.wav'
p13
aS'./datasets/YourMusicLibrary/wave/v2sound21.wav'
p14
aS'./datasets/YourMusicLibrary/wave/v1sound1.wav'
p15
aS'./datasets/YourMusicLibrary/wave/v1sound5.wav'
p16
aS'./datasets/YourMusicLibrary/wave/v2sound16.wav'
p17
aS'./datasets/YourMusicLibrary/wave/v3sound3.wav'
p18
aS'./datasets/YourMusicLibrary/wave/v1sound4.wav'
p19
aS'./datasets/YourMusicLibrary/wave/v2sound1.wav'
p20
aS'./datasets/YourMusicLibrary/wave/v2sound9.wav'
p21
aS'./datasets/YourMusicLibrary/wave/v2sound18.wav'
p22
aS'./datasets/YourMusicLibrary/wave/v1sound13.wav'
p23
aS'./datasets/YourMusicLibrary/wave/v1sound9.wav'
p24
aS'./datasets/YourMusicLibrary/wave/v3sound12.wav'
p25
aS'./datasets/YourMusicLibrary/wave/v3sound8.wav'
p26
aS'./datasets/YourMusicLibrary/wave/v2sound3.wav'
p27
aS'./datasets/YourMusicLibrary/wave/v1sound12.wav'
p28
aS'./datasets/YourMusicLibrary/wave/v1sound3.wav'
p29
aS'./datasets/YourMusicLibrary/wave/v1sound6.wav'
p30
aS'./datasets/YourMusicLibrary/wave/v2sound5.wav'
p31
aS'./datasets/YourMusicLibrary/wave/v2sound13.wav'
p32
aS'./datasets/YourMusicLibrary/wave/v2sound6.wav'
p33
aS'./datasets/YourMusicLibrary/wave/v3sound5.wav'
p34
aS'./datasets/YourMusicLibrary/wave/v3sound6.wav'
p35
aS'./datasets/YourMusicLibrary/wave/v3sound2.wav'
p36
aS'./datasets/YourMusicLibrary/wave/v2sound22.wav'
p37
aS'./datasets/YourMusicLibrary/wave/v2sound24.wav'
p38
aS'./datasets/YourMusicLibrary/wave/v2sound8.wav'
p39
aS'./datasets/YourMusicLibrary/wave/v1sound7.wav'
p40
aS'./datasets/YourMusicLibrary/wave/v2sound20.wav'
p41
aS'./datasets/YourMusicLibrary/wave/v2sound15.wav'
p42
aS'./datasets/YourMusicLibrary/wave/v2sound17.wav'
p43
aS'./datasets/YourMusicLibrary/wave/v2sound2.wav'
p44
aS'./datasets/YourMusicLibrary/wave/v3sound11.wav'
p45
aS'./datasets/YourMusicLibrary/wave/v3sound10.wav'
p46
aS'./datasets/YourMusicLibrary/wave/v1sound11.wav'
p47
aS'./datasets/YourMusicLibrary/wave/v2sound23.wav'
p48
aS'./datasets/YourMusicLibrary/wave/v3sound4.wav'
p49
aS'./datasets/YourMusicLibrary/wave/'
p50
a.