(lp0
S'./datasets/YourMusicLibrary/wave/v3sound1.wav'
p1
aS'./datasets/YourMusicLibrary/wave/v1sound2.wav'
p2
aS'./datasets/YourMusicLibrary/wave/v1sound1.wav'
p3
aS'./datasets/YourMusicLibrary/wave/v2sound1.wav'
p4
aS'./datasets/YourMusicLibrary/wave/v3sound2.wav'
p5
aS'./datasets/YourMusicLibrary/wave/v2sound2.wav'
p6
aS'./datasets/YourMusicLibrary/wave/'
p7
a.